
test1.elf:     file format elf32-littleriscv


Disassembly of section .text:

00010000 <_start>:
   10000:	00001117          	auipc	sp,0x1
   10004:	0c010113          	addi	sp,sp,192 # 110c0 <_sp0>
   10008:	00000097          	auipc	ra,0x0
   1000c:	00c08093          	addi	ra,ra,12 # 10014 <_endloop>
   10010:	008000ef          	jal	ra,10018 <main>

00010014 <_endloop>:
   10014:	0000006f          	j	10014 <_endloop>

00010018 <main>:
   10018:	fe010113          	addi	sp,sp,-32
   1001c:	00112e23          	sw	ra,28(sp)
   10020:	00812c23          	sw	s0,24(sp)
   10024:	02010413          	addi	s0,sp,32
   10028:	00300793          	li	a5,3
   1002c:	fef42623          	sw	a5,-20(s0)
   10030:	000107b7          	lui	a5,0x10
   10034:	0ac7a783          	lw	a5,172(a5) # 100ac <a>
   10038:	fec42703          	lw	a4,-20(s0)
   1003c:	00f707b3          	add	a5,a4,a5
   10040:	fef42423          	sw	a5,-24(s0)
   10044:	000107b7          	lui	a5,0x10
   10048:	0ac7a783          	lw	a5,172(a5) # 100ac <a>
   1004c:	00078513          	mv	a0,a5
   10050:	018000ef          	jal	ra,10068 <print>
   10054:	fec42503          	lw	a0,-20(s0)
   10058:	010000ef          	jal	ra,10068 <print>
   1005c:	fe842503          	lw	a0,-24(s0)
   10060:	008000ef          	jal	ra,10068 <print>
   10064:	0000006f          	j	10064 <main+0x4c>

00010068 <print>:
   10068:	fd010113          	addi	sp,sp,-48
   1006c:	02812623          	sw	s0,44(sp)
   10070:	03010413          	addi	s0,sp,48
   10074:	fca42e23          	sw	a0,-36(s0)
   10078:	aaaaa7b7          	lui	a5,0xaaaaa
   1007c:	00878793          	addi	a5,a5,8 # aaaaa008 <_ram_end+0xaaa8a008>
   10080:	fef42623          	sw	a5,-20(s0)
   10084:	fec42783          	lw	a5,-20(s0)
   10088:	fdc42703          	lw	a4,-36(s0)
   1008c:	00e7a023          	sw	a4,0(a5)
   10090:	00000013          	nop
   10094:	02c12403          	lw	s0,44(sp)
   10098:	03010113          	addi	sp,sp,48
   1009c:	00008067          	ret
